target datalayout = "e-m:e-p270:32:32-p271:32:32-p272:64:64-i64:64-i128:128-f80:128-n8:16:32:64-S128"
target triple = "x86_64-pc-linux-gnu"

@.str = private unnamed_addr constant [18 x i8] c"%Y-%m-%d %H:%M:%S\00", align 1

; Function Attrs: nounwind uwtable
define i32 @PGTYPEStimestamp_defmt_asc(ptr noundef %0, ptr noundef %1, ptr noundef %2) #0 {
  %4 = alloca i32, align 4
  %5 = alloca ptr, align 8
  %6 = alloca ptr, align 8
  %7 = alloca ptr, align 8
  %8 = alloca i32, align 4
  %9 = alloca i32, align 4
  %10 = alloca i32, align 4
  %11 = alloca i32, align 4
  %12 = alloca i32, align 4
  %13 = alloca i32, align 4
  %14 = alloca i32, align 4
  %15 = alloca i32, align 4
  %16 = alloca ptr, align 8
  %17 = alloca ptr, align 8
  %18 = alloca i32, align 4
  store ptr %0, ptr %5, align 8
  store ptr %1, ptr %6, align 8
  store ptr %2, ptr %7, align 8
  call void @llvm.lifetime.start.p0(i64 4, ptr %8) #11
  call void @llvm.lifetime.start.p0(i64 4, ptr %9) #11
  call void @llvm.lifetime.start.p0(i64 4, ptr %10) #11
  call void @llvm.lifetime.start.p0(i64 4, ptr %11) #11
  call void @llvm.lifetime.start.p0(i64 4, ptr %12) #11
  call void @llvm.lifetime.start.p0(i64 4, ptr %13) #11
  call void @llvm.lifetime.start.p0(i64 4, ptr %14) #11
  call void @llvm.lifetime.start.p0(i64 4, ptr %15) #11
  call void @llvm.lifetime.start.p0(i64 8, ptr %16) #11
  call void @llvm.lifetime.start.p0(i64 8, ptr %17) #11
  %19 = load ptr, ptr %6, align 8
  %20 = icmp ne ptr %19, null
  br i1 %20, label %22, label %21

21:                                               ; preds = %3
  store ptr @.str, ptr %6, align 8
  br label %22

22:                                               ; preds = %21, %3
  %23 = load ptr, ptr %6, align 8
  %24 = getelementptr inbounds i8, ptr %23, i64 0
  %25 = load i8, ptr %24, align 1
  %26 = icmp ne i8 %25, 0
  br i1 %26, label %28, label %27

27:                                               ; preds = %22
  store i32 1, ptr %4, align 4
  store i32 1, ptr %18, align 4
  br label %39

28:                                               ; preds = %22
  %29 = load ptr, ptr %5, align 8
  %30 = call ptr @pgtypes_strdup(ptr noundef %29)
  store ptr %30, ptr %16, align 8
  %31 = load ptr, ptr %6, align 8
  %32 = call ptr @pgtypes_strdup(ptr noundef %31)
  store ptr %32, ptr %17, align 8
  store i32 -1, ptr %8, align 4
  store i32 -1, ptr %9, align 4
  store i32 -1, ptr %10, align 4
  store i32 0, ptr %11, align 4
  store i32 -1, ptr %12, align 4
  store i32 -1, ptr %13, align 4
  store i32 0, ptr %14, align 4
  %33 = load ptr, ptr %17, align 8
  %34 = load ptr, ptr %7, align 8
  %35 = call i32 @PGTYPEStimestamp_defmt_scan(ptr noundef %16, ptr noundef %33, ptr noundef %34, ptr noundef %8, ptr noundef %9, ptr noundef %10, ptr noundef %11, ptr noundef %12, ptr noundef %13, ptr noundef %14)
  store i32 %35, ptr %15, align 4
  %36 = load ptr, ptr %16, align 8
  call void @free(ptr noundef %36) #11
  %37 = load ptr, ptr %17, align 8
  call void @free(ptr noundef %37) #11
  %38 = load i32, ptr %15, align 4
  store i32 %38, ptr %4, align 4
  store i32 1, ptr %18, align 4
  br label %39

39:                                               ; preds = %28, %27
  call void @llvm.lifetime.end.p0(i64 8, ptr %17) #11
  call void @llvm.lifetime.end.p0(i64 8, ptr %16) #11
  call void @llvm.lifetime.end.p0(i64 4, ptr %15) #11
  call void @llvm.lifetime.end.p0(i64 4, ptr %14) #11
  call void @llvm.lifetime.end.p0(i64 4, ptr %13) #11
  call void @llvm.lifetime.end.p0(i64 4, ptr %12) #11
  call void @llvm.lifetime.end.p0(i64 4, ptr %11) #11
  call void @llvm.lifetime.end.p0(i64 4, ptr %10) #11
  call void @llvm.lifetime.end.p0(i64 4, ptr %9) #11
  call void @llvm.lifetime.end.p0(i64 4, ptr %8) #11
  %40 = load i32, ptr %4, align 4
  ret i32 %40
}