; Function Attrs: nounwind uwtable
define i32 @PGTYPEStimestamp_defmt_asc(ptr noundef %0, ptr noundef %1, ptr noundef %2) local_unnamed_addr #0 {
  %4 = alloca i32, align 4
  %5 = alloca i32, align 4
  %6 = alloca i32, align 4
  %7 = alloca i32, align 4
  %8 = alloca i32, align 4
  %9 = alloca i32, align 4
  %10 = alloca i32, align 4
  %11 = alloca ptr, align 8
  call void @llvm.lifetime.start.p0(i64 4, ptr nonnull %4) #10
  call void @llvm.lifetime.start.p0(i64 4, ptr nonnull %5) #10
  call void @llvm.lifetime.start.p0(i64 4, ptr nonnull %6) #10
  call void @llvm.lifetime.start.p0(i64 4, ptr nonnull %7) #10
  call void @llvm.lifetime.start.p0(i64 4, ptr nonnull %8) #10
  call void @llvm.lifetime.start.p0(i64 4, ptr nonnull %9) #10
  call void @llvm.lifetime.start.p0(i64 4, ptr nonnull %10) #10
  call void @llvm.lifetime.start.p0(i64 8, ptr nonnull %11) #10
  %.not = icmp eq ptr %1, null
  %spec.store.select = select i1 %.not, ptr @.str, ptr %1
  %12 = load i8, ptr %spec.store.select, align 1
  %.not8 = icmp eq i8 %12, 0
  br i1 %.not8, label %18, label %13

13:                                               ; preds = %3
  %14 = tail call ptr @pgtypes_strdup(ptr noundef %0) #10
  store ptr %14, ptr %11, align 8
  %15 = tail call ptr @pgtypes_strdup(ptr noundef nonnull %spec.store.select) #10
  store i32 -1, ptr %4, align 4
  store i32 -1, ptr %5, align 4
  store i32 -1, ptr %6, align 4
  store i32 0, ptr %7, align 4
  store i32 -1, ptr %8, align 4
  store i32 -1, ptr %9, align 4
  store i32 0, ptr %10, align 4
  %16 = call i32 @PGTYPEStimestamp_defmt_scan(ptr noundef nonnull %11, ptr noundef %15, ptr noundef %2, ptr noundef nonnull %4, ptr noundef nonnull %5, ptr noundef nonnull %6, ptr noundef nonnull %7, ptr noundef nonnull %8, ptr noundef nonnull %9, ptr noundef nonnull %10) #10
  %17 = load ptr, ptr %11, align 8
  call void @free(ptr noundef %17) #10
  call void @free(ptr noundef %15) #10
  br label %18

18:                                               ; preds = %3, %13
  %.0 = phi i32 [ %16, %13 ], [ 1, %3 ]
  call void @llvm.lifetime.end.p0(i64 8, ptr nonnull %11) #10
  call void @llvm.lifetime.end.p0(i64 4, ptr nonnull %10) #10
  call void @llvm.lifetime.end.p0(i64 4, ptr nonnull %9) #10
  call void @llvm.lifetime.end.p0(i64 4, ptr nonnull %8) #10
  call void @llvm.lifetime.end.p0(i64 4, ptr nonnull %7) #10
  call void @llvm.lifetime.end.p0(i64 4, ptr nonnull %6) #10
  call void @llvm.lifetime.end.p0(i64 4, ptr nonnull %5) #10
  call void @llvm.lifetime.end.p0(i64 4, ptr nonnull %4) #10
  ret i32 %.0
}